; Function Attrs: mustprogress uwtable
define void @_ZN5arrow8internal16PlatformFilenameC2Ev(ptr noundef nonnull writeonly align 8 captures(none) dereferenceable(8) initializes((0, 8)) %0) unnamed_addr #3 align 2 personality ptr @__gxx_personality_v0 {
  %2 = tail call noalias noundef nonnull dereferenceable(32) ptr @_Znwm(i64 noundef 32) #40
  %3 = getelementptr inbounds nuw i8, ptr %2, i64 16
  tail call void @llvm.memset.p0.i64(ptr noundef nonnull align 16 dereferenceable(32) %3, i8 0, i64 16, i1 false)
  %4 = getelementptr inbounds nuw i8, ptr %2, i64 16
  store ptr %4, ptr %2, align 8, !tbaa !3
  %5 = getelementptr inbounds nuw i8, ptr %2, i64 8
  store i64 0, ptr %5, align 8, !tbaa !14
  store ptr %2, ptr %0, align 8, !tbaa !40
  ret void
}